target datalayout = "e-m:e-p270:32:32-p271:32:32-p272:64:64-i64:64-i128:128-f80:128-n8:16:32:64-S128"
target triple = "x86_64-unknown-linux-gnu"

%"class.llvh::raw_svector_ostream" = type { %"class.llvh::raw_pwrite_stream.base", ptr }
%"class.llvh::raw_pwrite_stream.base" = type { %"class.llvh::raw_ostream.base" }
%"class.llvh::raw_ostream.base" = type <{ ptr, ptr, ptr, ptr, i32 }>
%"class.llvh::format_object_base" = type { ptr, ptr }
%"struct.std::_Tuple_impl.1" = type { %"struct.std::_Tuple_impl.2", %"struct.std::_Head_base.3" }
%"struct.std::_Tuple_impl.2" = type { %"struct.std::_Head_base" }
%"struct.std::_Head_base" = type { i32 }
%"struct.std::_Head_base.3" = type { i32 }
%"class.llvh::format_object.32" = type <{ %"class.llvh::format_object_base", %"class.std::tuple.33", [4 x i8] }>
%"class.std::tuple.33" = type { %"struct.std::_Tuple_impl.base.36", [3 x i8] }
%"struct.std::_Tuple_impl.base.36" = type <{ %"struct.std::_Tuple_impl.1", %"struct.std::_Head_base.35" }>
%"struct.std::_Head_base.35" = type { i8 }
%"class.llvh::raw_ostream" = type <{ ptr, ptr, ptr, ptr, i32, [4 x i8] }>
%"struct.llvh::validate_format_parameters.83" = type { i8 }
%"struct.llvh::validate_format_parameters.85" = type { i8 }
%"struct.llvh::validate_format_parameters.109" = type { i8 }

@.str.6 = private unnamed_addr constant [11 x i8] c"%c%02d%02d\00", align 1
@_ZTVN4llvh19raw_svector_ostreamE = external unnamed_addr constant { [14 x ptr] }, align 8
@_ZTVN4llvh17raw_pwrite_streamE = external unnamed_addr constant { [14 x ptr] }, align 8
@_ZTVN4llvh11raw_ostreamE = external unnamed_addr constant { [13 x ptr] }, align 8
@_ZTVN4llvh18format_object_baseE = external unnamed_addr constant { [4 x ptr] }, align 8
@_ZTVN4llvh13format_objectIJciiEEE = linkonce_odr hidden unnamed_addr constant { [4 x ptr] } { [4 x ptr] [ptr null, ptr null, ptr @_ZN4llvh18format_object_base4homeEv, ptr @_ZNK4llvh13format_objectIJciiEE7snprintEPcj] }, comdat, align 8

; Function Attrs: mustprogress nounwind uwtable
define linkonce_odr void @_ZNSt10_Head_baseILm2EiLb0EEC2ERKi(ptr noundef nonnull align 4 dereferenceable(4) %this, ptr noundef nonnull align 4 dereferenceable(4) %__h) unnamed_addr #0 comdat align 2 {
entry:
  %this.addr = alloca ptr, align 8
  %__h.addr = alloca ptr, align 8
  store ptr %this, ptr %this.addr, align 8
  store ptr %__h, ptr %__h.addr, align 8
  %this1 = load ptr, ptr %this.addr, align 8
  %_M_head_impl = getelementptr inbounds %"struct.std::_Head_base", ptr %this1, i32 0, i32 0
  %0 = load ptr, ptr %__h.addr, align 8
  %1 = load i32, ptr %0, align 4
  store i32 %1, ptr %_M_head_impl, align 4
  ret void
}

; Function Attrs: mustprogress nounwind uwtable
define linkonce_odr void @_ZNSt10_Head_baseILm1EiLb0EEC2ERKi(ptr noundef nonnull align 4 dereferenceable(4) %this, ptr noundef nonnull align 4 dereferenceable(4) %__h) unnamed_addr #0 comdat align 2 {
entry:
  %this.addr = alloca ptr, align 8
  %__h.addr = alloca ptr, align 8
  store ptr %this, ptr %this.addr, align 8
  store ptr %__h, ptr %__h.addr, align 8
  %this1 = load ptr, ptr %this.addr, align 8
  %_M_head_impl = getelementptr inbounds %"struct.std::_Head_base.3", ptr %this1, i32 0, i32 0
  %0 = load ptr, ptr %__h.addr, align 8
  %1 = load i32, ptr %0, align 4
  store i32 %1, ptr %_M_head_impl, align 4
  ret void
}

; Function Attrs: mustprogress nounwind uwtable
define linkonce_odr void @_ZNSt11_Tuple_implILm2EJiEEC2ERKi(ptr noundef nonnull align 4 dereferenceable(4) %this, ptr noundef nonnull align 4 dereferenceable(4) %__head) unnamed_addr #0 comdat align 2 {
entry:
  %this.addr = alloca ptr, align 8
  %__head.addr = alloca ptr, align 8
  store ptr %this, ptr %this.addr, align 8
  store ptr %__head, ptr %__head.addr, align 8
  %this1 = load ptr, ptr %this.addr, align 8
  %0 = load ptr, ptr %__head.addr, align 8
  call void @_ZNSt10_Head_baseILm2EiLb0EEC2ERKi(ptr noundef nonnull align 4 dereferenceable(4) %this1, ptr noundef nonnull align 4 dereferenceable(4) %0)
  ret void
}

; Function Attrs: mustprogress nounwind uwtable
define linkonce_odr hidden void @_ZN4llvh26validate_format_parametersIJiEEC2Ev(ptr noundef nonnull align 1 dereferenceable(1) %this) unnamed_addr #0 comdat align 2 {
entry:
  %this.addr = alloca ptr, align 8
  store ptr %this, ptr %this.addr, align 8
  ret void
}

; Function Attrs: mustprogress nounwind uwtable
define linkonce_odr void @_ZNSt10_Head_baseILm0EcLb0EEC2ERKc(ptr noundef nonnull align 1 dereferenceable(1) %this, ptr noundef nonnull align 1 dereferenceable(1) %__h) unnamed_addr #0 comdat align 2 {
entry:
  %this.addr = alloca ptr, align 8
  %__h.addr = alloca ptr, align 8
  store ptr %this, ptr %this.addr, align 8
  store ptr %__h, ptr %__h.addr, align 8
  %this1 = load ptr, ptr %this.addr, align 8
  %_M_head_impl = getelementptr inbounds %"struct.std::_Head_base.35", ptr %this1, i32 0, i32 0
  %0 = load ptr, ptr %__h.addr, align 8
  %1 = load i8, ptr %0, align 1
  store i8 %1, ptr %_M_head_impl, align 1
  ret void
}

; Function Attrs: mustprogress nounwind uwtable
define linkonce_odr void @_ZNSt11_Tuple_implILm1EJiiEEC2ERKiS2_(ptr noundef nonnull align 4 dereferenceable(8) %this, ptr noundef nonnull align 4 dereferenceable(4) %__head, ptr noundef nonnull align 4 dereferenceable(4) %__tail) unnamed_addr #0 comdat align 2 {
entry:
  %this.addr = alloca ptr, align 8
  %__head.addr = alloca ptr, align 8
  %__tail.addr = alloca ptr, align 8
  store ptr %this, ptr %this.addr, align 8
  store ptr %__head, ptr %__head.addr, align 8
  store ptr %__tail, ptr %__tail.addr, align 8
  %this1 = load ptr, ptr %this.addr, align 8
  %0 = load ptr, ptr %__tail.addr, align 8
  call void @_ZNSt11_Tuple_implILm2EJiEEC2ERKi(ptr noundef nonnull align 4 dereferenceable(4) %this1, ptr noundef nonnull align 4 dereferenceable(4) %0)
  %1 = getelementptr inbounds i8, ptr %this1, i64 4
  %2 = load ptr, ptr %__head.addr, align 8
  call void @_ZNSt10_Head_baseILm1EiLb0EEC2ERKi(ptr noundef nonnull align 4 dereferenceable(4) %1, ptr noundef nonnull align 4 dereferenceable(4) %2)
  ret void
}

; Function Attrs: mustprogress nounwind uwtable
define linkonce_odr hidden void @_ZN4llvh26validate_format_parametersIJiiEEC2Ev(ptr noundef nonnull align 1 dereferenceable(1) %this) unnamed_addr #0 comdat align 2 {
entry:
  %this.addr = alloca ptr, align 8
  %agg.tmp.ensured = alloca %"struct.llvh::validate_format_parameters.85", align 1
  store ptr %this, ptr %this.addr, align 8
  call void @_ZN4llvh26validate_format_parametersIJiEEC2Ev(ptr noundef nonnull align 1 dereferenceable(1) %agg.tmp.ensured)
  ret void
}

; Function Attrs: mustprogress nounwind uwtable
define linkonce_odr void @_ZNSt11_Tuple_implILm0EJciiEEC2ERKcRKiS4_(ptr noundef nonnull align 4 dereferenceable(9) %this, ptr noundef nonnull align 1 dereferenceable(1) %__head, ptr noundef nonnull align 4 dereferenceable(4) %__tail, ptr noundef nonnull align 4 dereferenceable(4) %__tail1) unnamed_addr #0 comdat align 2 {
entry:
  %this.addr = alloca ptr, align 8
  %__head.addr = alloca ptr, align 8
  %__tail.addr = alloca ptr, align 8
  %__tail.addr2 = alloca ptr, align 8
  store ptr %this, ptr %this.addr, align 8
  store ptr %__head, ptr %__head.addr, align 8
  store ptr %__tail, ptr %__tail.addr, align 8
  store ptr %__tail1, ptr %__tail.addr2, align 8
  %this3 = load ptr, ptr %this.addr, align 8
  %0 = load ptr, ptr %__tail.addr, align 8
  %1 = load ptr, ptr %__tail.addr2, align 8
  call void @_ZNSt11_Tuple_implILm1EJiiEEC2ERKiS2_(ptr noundef nonnull align 4 dereferenceable(8) %this3, ptr noundef nonnull align 4 dereferenceable(4) %0, ptr noundef nonnull align 4 dereferenceable(4) %1)
  %2 = getelementptr inbounds i8, ptr %this3, i64 8
  %3 = load ptr, ptr %__head.addr, align 8
  call void @_ZNSt10_Head_baseILm0EcLb0EEC2ERKc(ptr noundef nonnull align 1 dereferenceable(1) %2, ptr noundef nonnull align 1 dereferenceable(1) %3)
  ret void
}

; Function Attrs: mustprogress nounwind uwtable
define linkonce_odr hidden void @_ZN4llvh26validate_format_parametersIJciiEEC2Ev(ptr noundef nonnull align 1 dereferenceable(1) %this) unnamed_addr #0 comdat align 2 {
entry:
  %this.addr = alloca ptr, align 8
  %agg.tmp.ensured = alloca %"struct.llvh::validate_format_parameters.83", align 1
  store ptr %this, ptr %this.addr, align 8
  call void @_ZN4llvh26validate_format_parametersIJiiEEC2Ev(ptr noundef nonnull align 1 dereferenceable(1) %agg.tmp.ensured)
  ret void
}

; Function Attrs: mustprogress nounwind uwtable
define linkonce_odr void @_ZNSt5tupleIJciiEEC2ILb1ETnNSt9enable_ifIXclsr4_TCCIXT_EEE29__is_implicitly_constructibleIRKcRKiS6_EEEbE4typeELb1EEES4_S6_S6_(ptr noundef nonnull align 4 dereferenceable(9) %this, ptr noundef nonnull align 1 dereferenceable(1) %__elements, ptr noundef nonnull align 4 dereferenceable(4) %__elements1, ptr noundef nonnull align 4 dereferenceable(4) %__elements3) unnamed_addr #0 comdat align 2 {
entry:
  %this.addr = alloca ptr, align 8
  %__elements.addr = alloca ptr, align 8
  %__elements.addr2 = alloca ptr, align 8
  %__elements.addr4 = alloca ptr, align 8
  store ptr %this, ptr %this.addr, align 8
  store ptr %__elements, ptr %__elements.addr, align 8
  store ptr %__elements1, ptr %__elements.addr2, align 8
  store ptr %__elements3, ptr %__elements.addr4, align 8
  %this5 = load ptr, ptr %this.addr, align 8
  %0 = load ptr, ptr %__elements.addr, align 8
  %1 = load ptr, ptr %__elements.addr2, align 8
  %2 = load ptr, ptr %__elements.addr4, align 8
  call void @_ZNSt11_Tuple_implILm0EJciiEEC2ERKcRKiS4_(ptr noundef nonnull align 4 dereferenceable(9) %this5, ptr noundef nonnull align 1 dereferenceable(1) %0, ptr noundef nonnull align 4 dereferenceable(4) %1, ptr noundef nonnull align 4 dereferenceable(4) %2)
  ret void
}

; Function Attrs: mustprogress nounwind uwtable
define linkonce_odr hidden void @_ZN4llvh18format_object_baseC2EPKc(ptr noundef nonnull align 8 dereferenceable(16) %this, ptr noundef %fmt) unnamed_addr #0 comdat align 2 {
entry:
  %this.addr = alloca ptr, align 8
  %fmt.addr = alloca ptr, align 8
  store ptr %this, ptr %this.addr, align 8
  store ptr %fmt, ptr %fmt.addr, align 8
  %this1 = load ptr, ptr %this.addr, align 8
  store ptr getelementptr inbounds ({ [4 x ptr] }, ptr @_ZTVN4llvh18format_object_baseE, i32 0, i32 0, i32 2), ptr %this1, align 8
  %Fmt = getelementptr inbounds %"class.llvh::format_object_base", ptr %this1, i32 0, i32 1
  %0 = load ptr, ptr %fmt.addr, align 8
  store ptr %0, ptr %Fmt, align 8
  ret void
}

; Function Attrs: mustprogress nounwind uwtable
define linkonce_odr hidden void @_ZN4llvh11raw_ostream5flushEv(ptr noundef nonnull align 8 dereferenceable(36) %this) #0 comdat align 2 {
entry:
  %this.addr = alloca ptr, align 8
  store ptr %this, ptr %this.addr, align 8
  %this1 = load ptr, ptr %this.addr, align 8
  %OutBufCur = getelementptr inbounds %"class.llvh::raw_ostream", ptr %this1, i32 0, i32 3
  %0 = load ptr, ptr %OutBufCur, align 8
  %OutBufStart = getelementptr inbounds %"class.llvh::raw_ostream", ptr %this1, i32 0, i32 1
  %1 = load ptr, ptr %OutBufStart, align 8
  %cmp = icmp ne ptr %0, %1
  br i1 %cmp, label %if.then, label %if.end

if.then:                                          ; preds = %entry
  call void @_ZN4llvh11raw_ostream14flush_nonemptyEv(ptr noundef nonnull align 8 dereferenceable(36) %this1)
  br label %if.end

if.end:                                           ; preds = %if.then, %entry
  ret void
}

; Function Attrs: mustprogress nounwind uwtable
define linkonce_odr hidden void @_ZN4llvh11raw_ostreamC2Eb(ptr noundef nonnull align 8 dereferenceable(36) %this, i1 noundef zeroext %unbuffered) unnamed_addr #0 comdat align 2 {
entry:
  %this.addr = alloca ptr, align 8
  %unbuffered.addr = alloca i8, align 1
  store ptr %this, ptr %this.addr, align 8
  %frombool = zext i1 %unbuffered to i8
  store i8 %frombool, ptr %unbuffered.addr, align 1
  %this1 = load ptr, ptr %this.addr, align 8
  store ptr getelementptr inbounds ({ [13 x ptr] }, ptr @_ZTVN4llvh11raw_ostreamE, i32 0, i32 0, i32 2), ptr %this1, align 8
  %BufferMode = getelementptr inbounds %"class.llvh::raw_ostream", ptr %this1, i32 0, i32 4
  %0 = load i8, ptr %unbuffered.addr, align 1
  %tobool = trunc i8 %0 to i1
  %cond = select i1 %tobool, i32 0, i32 1
  store i32 %cond, ptr %BufferMode, align 8
  %OutBufCur = getelementptr inbounds %"class.llvh::raw_ostream", ptr %this1, i32 0, i32 3
  store ptr null, ptr %OutBufCur, align 8
  %OutBufEnd = getelementptr inbounds %"class.llvh::raw_ostream", ptr %this1, i32 0, i32 2
  store ptr null, ptr %OutBufEnd, align 8
  %OutBufStart = getelementptr inbounds %"class.llvh::raw_ostream", ptr %this1, i32 0, i32 1
  store ptr null, ptr %OutBufStart, align 8
  ret void
}

; Function Attrs: mustprogress nounwind uwtable
define linkonce_odr hidden void @_ZN4llvh17raw_pwrite_streamD2Ev(ptr noundef nonnull align 8 dereferenceable(36) %this) unnamed_addr #0 comdat align 2 {
entry:
  %this.addr = alloca ptr, align 8
  store ptr %this, ptr %this.addr, align 8
  %this1 = load ptr, ptr %this.addr, align 8
  call void @_ZN4llvh11raw_ostreamD2Ev(ptr noundef nonnull align 8 dereferenceable(36) %this1) #7
  ret void
}

; Function Attrs: mustprogress nounwind uwtable
define linkonce_odr hidden void @_ZN4llvh13format_objectIJciiEEC2EPKcRS2_RKiS6_(ptr noundef nonnull align 8 dereferenceable(32) %this, ptr noundef %fmt, ptr noundef nonnull align 1 dereferenceable(1) %vals, ptr noundef nonnull align 4 dereferenceable(4) %vals1, ptr noundef nonnull align 4 dereferenceable(4) %vals3) unnamed_addr #0 comdat align 2 {
entry:
  %this.addr = alloca ptr, align 8
  %fmt.addr = alloca ptr, align 8
  %vals.addr = alloca ptr, align 8
  %vals.addr2 = alloca ptr, align 8
  %vals.addr4 = alloca ptr, align 8
  %agg.tmp.ensured = alloca %"struct.llvh::validate_format_parameters.109", align 1
  store ptr %this, ptr %this.addr, align 8
  store ptr %fmt, ptr %fmt.addr, align 8
  store ptr %vals, ptr %vals.addr, align 8
  store ptr %vals1, ptr %vals.addr2, align 8
  store ptr %vals3, ptr %vals.addr4, align 8
  %this5 = load ptr, ptr %this.addr, align 8
  %0 = load ptr, ptr %fmt.addr, align 8
  call void @_ZN4llvh18format_object_baseC2EPKc(ptr noundef nonnull align 8 dereferenceable(16) %this5, ptr noundef %0)
  store ptr getelementptr inbounds ({ [4 x ptr] }, ptr @_ZTVN4llvh13format_objectIJciiEEE, i32 0, i32 0, i32 2), ptr %this5, align 8
  %Vals = getelementptr inbounds %"class.llvh::format_object.32", ptr %this5, i32 0, i32 1
  %1 = load ptr, ptr %vals.addr, align 8
  %2 = load ptr, ptr %vals.addr2, align 8
  %3 = load ptr, ptr %vals.addr4, align 8
  call void @_ZNSt5tupleIJciiEEC2ILb1ETnNSt9enable_ifIXclsr4_TCCIXT_EEE29__is_implicitly_constructibleIRKcRKiS6_EEEbE4typeELb1EEES4_S6_S6_(ptr noundef nonnull align 4 dereferenceable(9) %Vals, ptr noundef nonnull align 1 dereferenceable(1) %1, ptr noundef nonnull align 4 dereferenceable(4) %2, ptr noundef nonnull align 4 dereferenceable(4) %3) #7
  call void @_ZN4llvh26validate_format_parametersIJciiEEC2Ev(ptr noundef nonnull align 1 dereferenceable(1) %agg.tmp.ensured)
  ret void
}

; Function Attrs: mustprogress nounwind uwtable
define internal noundef double @_ZN6hermes2vmL7posfmodEdd(double noundef %x, double noundef %y) #0 {
entry:
  %x.addr = alloca double, align 8
  %y.addr = alloca double, align 8
  %result = alloca double, align 8
  store double %x, ptr %x.addr, align 8
  store double %y, ptr %y.addr, align 8
  %0 = load double, ptr %x.addr, align 8
  %1 = load double, ptr %y.addr, align 8
  %call = call double @fmod(double noundef %0, double noundef %1) #7
  store double %call, ptr %result, align 8
  %2 = load double, ptr %result, align 8
  %cmp = fcmp olt double %2, 0.000000e+00
  br i1 %cmp, label %cond.true, label %cond.false

cond.true:                                        ; preds = %entry
  %3 = load double, ptr %result, align 8
  %4 = load double, ptr %y.addr, align 8
  %add = fadd double %3, %4
  br label %cond.end

cond.false:                                       ; preds = %entry
  %5 = load double, ptr %result, align 8
  br label %cond.end

cond.end:                                         ; preds = %cond.false, %cond.true
  %cond = phi double [ %add, %cond.true ], [ %5, %cond.false ]
  ret double %cond
}

; Function Attrs: mustprogress nounwind uwtable
define linkonce_odr hidden void @_ZN4llvh11raw_ostream13SetUnbufferedEv(ptr noundef nonnull align 8 dereferenceable(36) %this) #0 comdat align 2 {
entry:
  %this.addr = alloca ptr, align 8
  store ptr %this, ptr %this.addr, align 8
  %this1 = load ptr, ptr %this.addr, align 8
  call void @_ZN4llvh11raw_ostream5flushEv(ptr noundef nonnull align 8 dereferenceable(36) %this1)
  call void @_ZN4llvh11raw_ostream16SetBufferAndModeEPcmNS0_10BufferKindE(ptr noundef nonnull align 8 dereferenceable(36) %this1, ptr noundef null, i64 noundef 0, i32 noundef 0)
  ret void
}

; Function Attrs: mustprogress nounwind uwtable
define linkonce_odr hidden void @_ZN4llvh17raw_pwrite_streamC2Eb(ptr noundef nonnull align 8 dereferenceable(36) %this, i1 noundef zeroext %Unbuffered) unnamed_addr #0 comdat align 2 {
entry:
  %this.addr = alloca ptr, align 8
  %Unbuffered.addr = alloca i8, align 1
  store ptr %this, ptr %this.addr, align 8
  %frombool = zext i1 %Unbuffered to i8
  store i8 %frombool, ptr %Unbuffered.addr, align 1
  %this1 = load ptr, ptr %this.addr, align 8
  %0 = load i8, ptr %Unbuffered.addr, align 1
  %tobool = trunc i8 %0 to i1
  call void @_ZN4llvh11raw_ostreamC2Eb(ptr noundef nonnull align 8 dereferenceable(36) %this1, i1 noundef zeroext %tobool)
  store ptr getelementptr inbounds ({ [14 x ptr] }, ptr @_ZTVN4llvh17raw_pwrite_streamE, i32 0, i32 0, i32 2), ptr %this1, align 8
  ret void
}

; Function Attrs: mustprogress nounwind uwtable
define linkonce_odr hidden void @_ZN4llvh19raw_svector_ostreamD2Ev(ptr noundef nonnull align 8 dereferenceable(48) %this) unnamed_addr #0 comdat align 2 {
entry:
  %this.addr = alloca ptr, align 8
  store ptr %this, ptr %this.addr, align 8
  %this1 = load ptr, ptr %this.addr, align 8
  call void @_ZN4llvh17raw_pwrite_streamD2Ev(ptr noundef nonnull align 8 dereferenceable(36) %this1) #7
  ret void
}

; Function Attrs: mustprogress nounwind uwtable
define linkonce_odr hidden void @_ZN4llvh6formatIJciiEEENS_13format_objectIJDpT_EEEPKcDpRKS2_(ptr noalias sret(%"class.llvh::format_object.32") align 8 %agg.result, ptr noundef %Fmt, ptr noundef nonnull align 1 dereferenceable(1) %Vals, ptr noundef nonnull align 4 dereferenceable(4) %Vals1, ptr noundef nonnull align 4 dereferenceable(4) %Vals3) #0 comdat {
entry:
  %result.ptr = alloca ptr, align 8
  %Fmt.addr = alloca ptr, align 8
  %Vals.addr = alloca ptr, align 8
  %Vals.addr2 = alloca ptr, align 8
  %Vals.addr4 = alloca ptr, align 8
  store ptr %agg.result, ptr %result.ptr, align 8
  store ptr %Fmt, ptr %Fmt.addr, align 8
  store ptr %Vals, ptr %Vals.addr, align 8
  store ptr %Vals1, ptr %Vals.addr2, align 8
  store ptr %Vals3, ptr %Vals.addr4, align 8
  %0 = load ptr, ptr %Fmt.addr, align 8
  %1 = load ptr, ptr %Vals.addr, align 8
  %2 = load ptr, ptr %Vals.addr2, align 8
  %3 = load ptr, ptr %Vals.addr4, align 8
  call void @_ZN4llvh13format_objectIJciiEEC2EPKcRS2_RKiS6_(ptr noundef nonnull align 8 dereferenceable(32) %agg.result, ptr noundef %0, ptr noundef nonnull align 1 dereferenceable(1) %1, ptr noundef nonnull align 4 dereferenceable(4) %2, ptr noundef nonnull align 4 dereferenceable(4) %3)
  ret void
}

; Function Attrs: mustprogress nounwind uwtable
define hidden noundef double @_ZN6hermes2vm12hourFromTimeEd(double noundef %t) #0 {
entry:
  %t.addr = alloca double, align 8
  store double %t, ptr %t.addr, align 8
  %0 = load double, ptr %t.addr, align 8
  %div = fdiv double %0, 3.600000e+06
  %1 = call double @llvm.floor.f64(double %div)
  %call = call noundef double @_ZN6hermes2vmL7posfmodEdd(double noundef %1, double noundef 2.400000e+01)
  ret double %call
}

; Function Attrs: mustprogress nounwind uwtable
define hidden noundef double @_ZN6hermes2vm11minFromTimeEd(double noundef %t) #0 {
entry:
  %t.addr = alloca double, align 8
  store double %t, ptr %t.addr, align 8
  %0 = load double, ptr %t.addr, align 8
  %div = fdiv double %0, 6.000000e+04
  %1 = call double @llvm.floor.f64(double %div)
  %call = call noundef double @_ZN6hermes2vmL7posfmodEdd(double noundef %1, double noundef 6.000000e+01)
  ret double %call
}

; Function Attrs: mustprogress nounwind uwtable
define linkonce_odr noundef double @_ZSt3absd(double noundef %__x) #0 comdat {
entry:
  %__x.addr = alloca double, align 8
  store double %__x, ptr %__x.addr, align 8
  %0 = load double, ptr %__x.addr, align 8
  %1 = call double @llvm.fabs.f64(double %0)
  ret double %1
}

; Function Attrs: mustprogress nounwind uwtable
define linkonce_odr hidden void @_ZN4llvh19raw_svector_ostreamC2ERNS_15SmallVectorImplIcEE(ptr noundef nonnull align 8 dereferenceable(48) %this, ptr noundef nonnull align 8 dereferenceable(16) %O) unnamed_addr #0 comdat align 2 {
entry:
  %this.addr = alloca ptr, align 8
  %O.addr = alloca ptr, align 8
  store ptr %this, ptr %this.addr, align 8
  store ptr %O, ptr %O.addr, align 8
  %this1 = load ptr, ptr %this.addr, align 8
  call void @_ZN4llvh17raw_pwrite_streamC2Eb(ptr noundef nonnull align 8 dereferenceable(36) %this1, i1 noundef zeroext false)
  store ptr getelementptr inbounds ({ [14 x ptr] }, ptr @_ZTVN4llvh19raw_svector_ostreamE, i32 0, i32 0, i32 2), ptr %this1, align 8
  %OS = getelementptr inbounds %"class.llvh::raw_svector_ostream", ptr %this1, i32 0, i32 1
  %0 = load ptr, ptr %O.addr, align 8
  store ptr %0, ptr %OS, align 8
  call void @_ZN4llvh11raw_ostream13SetUnbufferedEv(ptr noundef nonnull align 8 dereferenceable(36) %this1)
  ret void
}

; Function Attrs: mustprogress nounwind uwtable
define hidden void @_ZN6hermes2vm14timeZoneStringEddRN4llvh15SmallVectorImplIcEE(double noundef %t, double noundef %tza, ptr noundef nonnull align 8 dereferenceable(16) %buf) #0 {
entry:
  %t.addr = alloca double, align 8
  %tza.addr = alloca double, align 8
  %buf.addr = alloca ptr, align 8
  %os = alloca %"class.llvh::raw_svector_ostream", align 8
  %offset = alloca double, align 8
  %offsetSign = alloca i8, align 1
  %offsetMin = alloca i32, align 4
  %offsetHour = alloca i32, align 4
  %ref.tmp = alloca %"class.llvh::format_object.32", align 8
  store double %t, ptr %t.addr, align 8
  store double %tza, ptr %tza.addr, align 8
  store ptr %buf, ptr %buf.addr, align 8
  %0 = load ptr, ptr %buf.addr, align 8
  call void @_ZN4llvh19raw_svector_ostreamC2ERNS_15SmallVectorImplIcEE(ptr noundef nonnull align 8 dereferenceable(48) %os, ptr noundef nonnull align 8 dereferenceable(16) %0)
  %1 = load double, ptr %tza.addr, align 8
  store double %1, ptr %offset, align 8
  %2 = load double, ptr %offset, align 8
  %cmp = fcmp oge double %2, 0.000000e+00
  %cond = select i1 %cmp, i8 43, i8 45
  store i8 %cond, ptr %offsetSign, align 1
  %3 = load double, ptr %offset, align 8
  %call = call noundef double @_ZSt3absd(double noundef %3)
  %call1 = call noundef double @_ZN6hermes2vm11minFromTimeEd(double noundef %call)
  %conv = fptosi double %call1 to i32
  store i32 %conv, ptr %offsetMin, align 4
  %4 = load double, ptr %offset, align 8
  %call2 = call noundef double @_ZSt3absd(double noundef %4)
  %call3 = call noundef double @_ZN6hermes2vm12hourFromTimeEd(double noundef %call2)
  %conv4 = fptosi double %call3 to i32
  store i32 %conv4, ptr %offsetHour, align 4
  call void @_ZN4llvh6formatIJciiEEENS_13format_objectIJDpT_EEEPKcDpRKS2_(ptr sret(%"class.llvh::format_object.32") align 8 %ref.tmp, ptr noundef @.str.6, ptr noundef nonnull align 1 dereferenceable(1) %offsetSign, ptr noundef nonnull align 4 dereferenceable(4) %offsetHour, ptr noundef nonnull align 4 dereferenceable(4) %offsetMin)
  %call5 = call noundef nonnull align 8 dereferenceable(36) ptr @_ZN4llvh11raw_ostreamlsERKNS_18format_object_baseE(ptr noundef nonnull align 8 dereferenceable(36) %os, ptr noundef nonnull align 8 dereferenceable(16) %ref.tmp)
  call void @_ZN4llvh19raw_svector_ostreamD2Ev(ptr noundef nonnull align 8 dereferenceable(48) %os) #7
  ret void
}