; Function Attrs: mustprogress nounwind uwtable
define hidden void @_ZN6hermes2vm14timeZoneStringEddRN4llvh15SmallVectorImplIcEE(double noundef %t, double noundef %tza, ptr noundef nonnull align 8 dereferenceable(16) %buf) local_unnamed_addr #0 {
entry:
  %os = alloca %"class.llvh::raw_svector_ostream", align 8
  %ref.tmp = alloca %"class.llvh::format_object.32", align 8
  %BufferMode.i.i.i = getelementptr inbounds i8, ptr %os, i64 32
  store i32 1, ptr %BufferMode.i.i.i, align 8
  %OutBufStart.i.i.i = getelementptr inbounds i8, ptr %os, i64 8
  call void @llvm.memset.p0.i64(ptr noundef nonnull align 8 dereferenceable(24) %OutBufStart.i.i.i, i8 0, i64 24, i1 false)
  store ptr getelementptr inbounds ({ [14 x ptr] }, ptr @_ZTVN4llvh19raw_svector_ostreamE, i64 0, i32 0, i64 2), ptr %os, align 8
  %OS.i = getelementptr inbounds i8, ptr %os, i64 40
  store ptr %buf, ptr %OS.i, align 8
  call void @_ZN4llvh11raw_ostream16SetBufferAndModeEPcmNS0_10BufferKindE(ptr noundef nonnull align 8 dereferenceable(36) %os, ptr noundef null, i64 noundef 0, i32 noundef 0) #17
  %cmp = fcmp oge double %tza, 0.000000e+00
  %cond = select i1 %cmp, i8 43, i8 45
  %0 = call noundef double @llvm.fabs.f64(double %tza)
  %div.i = fdiv double %0, 6.000000e+04
  %1 = call double @llvm.floor.f64(double %div.i)
  %call.i.i = call double @fmod(double noundef %1, double noundef 6.000000e+01) #17
  %div.i3 = fdiv double %0, 3.600000e+06
  %2 = call double @llvm.floor.f64(double %div.i3)
  %call.i.i4 = call double @fmod(double noundef %2, double noundef 2.400000e+01) #17
  %Fmt.i.i.i = getelementptr inbounds i8, ptr %ref.tmp, i64 8
  store ptr @.str.6, ptr %Fmt.i.i.i, align 8, !alias.scope !26
  store ptr getelementptr inbounds ({ [4 x ptr] }, ptr @_ZTVN4llvh13format_objectIJciiEEE, i64 0, i32 0, i64 2), ptr %ref.tmp, align 8, !alias.scope !26
  %Vals.i.i = getelementptr inbounds i8, ptr %ref.tmp, i64 16
  %3 = insertelement <2 x double> poison, double %call.i.i, i64 0
  %4 = insertelement <2 x double> %3, double %call.i.i4, i64 1
  %5 = fcmp olt <2 x double> %4, zeroinitializer
  %6 = fadd <2 x double> %4, <double 6.000000e+01, double 2.400000e+01>
  %7 = select <2 x i1> %5, <2 x double> %6, <2 x double> %4
  %8 = fptosi <2 x double> %7 to <2 x i32>
  store <2 x i32> %8, ptr %Vals.i.i, align 8, !alias.scope !26
  %9 = getelementptr inbounds i8, ptr %ref.tmp, i64 24
  store i8 %cond, ptr %9, align 8, !alias.scope !26
  %call5 = call noundef nonnull align 8 dereferenceable(36) ptr @_ZN4llvh11raw_ostreamlsERKNS_18format_object_baseE(ptr noundef nonnull align 8 dereferenceable(36) %os, ptr noundef nonnull align 8 dereferenceable(16) %ref.tmp) #17
  call void @_ZN4llvh11raw_ostreamD2Ev(ptr noundef nonnull align 8 dereferenceable(36) %os) #17
  ret void
}